target datalayout = "e-m:e-p270:32:32-p271:32:32-p272:64:64-i64:64-i128:128-f80:128-n8:16:32:64-S128"
target triple = "x86_64-pc-linux-gnu"

%"class.casadi::SerializingStream" = type <{ %"class.std::unordered_map", ptr, ptr, i8, [7 x i8] }>
%"class.std::unordered_map" = type { %"class.std::_Hashtable" }
%"class.std::_Hashtable" = type { ptr, i64, %"struct.std::__detail::_Hash_node_base", i64, %"struct.std::__detail::_Prime_rehash_policy", ptr }
%"struct.std::__detail::_Hash_node_base" = type { ptr }
%"struct.std::__detail::_Prime_rehash_policy" = type { float, i64 }

; Function Attrs: mustprogress uwtable
define void @_ZN6casadi17SerializingStream4packEc(ptr noundef nonnull align 8 dereferenceable(73) %0, i8 noundef signext %1) #4 align 2 {
  %3 = alloca ptr, align 8
  %4 = alloca i8, align 1
  %5 = alloca i8, align 1
  store ptr %0, ptr %3, align 8
  store i8 %1, ptr %4, align 1
  %6 = load ptr, ptr %3, align 8
  store i8 97, ptr %5, align 1
  %7 = getelementptr inbounds %"class.casadi::SerializingStream", ptr %6, i32 0, i32 2
  %8 = load ptr, ptr %7, align 8
  %9 = load i8, ptr %5, align 1
  %10 = zext i8 %9 to i32
  %11 = load i8, ptr %4, align 1
  %12 = zext i8 %11 to i32
  %13 = srem i32 %12, 16
  %14 = add nsw i32 %10, %13
  %15 = trunc i32 %14 to i8
  %16 = call noundef nonnull align 8 dereferenceable(8) ptr @_ZNSo3putEc(ptr noundef nonnull align 8 dereferenceable(8) %8, i8 noundef signext %15)
  %17 = getelementptr inbounds %"class.casadi::SerializingStream", ptr %6, i32 0, i32 2
  %18 = load ptr, ptr %17, align 8
  %19 = load i8, ptr %5, align 1
  %20 = zext i8 %19 to i32
  %21 = load i8, ptr %4, align 1
  %22 = zext i8 %21 to i32
  %23 = ashr i32 %22, 4
  %24 = add nsw i32 %20, %23
  %25 = trunc i32 %24 to i8
  %26 = call noundef nonnull align 8 dereferenceable(8) ptr @_ZNSo3putEc(ptr noundef nonnull align 8 dereferenceable(8) %18, i8 noundef signext %25)
  ret void
}

; Function Attrs: mustprogress uwtable
define void @_ZN6casadi17SerializingStream8decorateEc(ptr noundef nonnull align 8 dereferenceable(73) %0, i8 noundef signext %1) #4 align 2 {
  %3 = alloca ptr, align 8
  %4 = alloca i8, align 1
  store ptr %0, ptr %3, align 8
  store i8 %1, ptr %4, align 1
  %5 = load ptr, ptr %3, align 8
  %6 = getelementptr inbounds %"class.casadi::SerializingStream", ptr %5, i32 0, i32 3
  %7 = load i8, ptr %6, align 8
  %8 = trunc i8 %7 to i1
  br i1 %8, label %9, label %11

9:                                                ; preds = %2
  %10 = load i8, ptr %4, align 1
  call void @_ZN6casadi17SerializingStream4packEc(ptr noundef nonnull align 8 dereferenceable(73) %5, i8 noundef signext %10)
  br label %11

11:                                               ; preds = %9, %2
  ret void
}

; Function Attrs: mustprogress uwtable
define void @_ZN6casadi17SerializingStream4packEd(ptr noundef nonnull align 8 dereferenceable(73) %0, double noundef %1) #4 align 2 {
  %3 = alloca ptr, align 8
  %4 = alloca double, align 8
  %5 = alloca ptr, align 8
  %6 = alloca i32, align 4
  store ptr %0, ptr %3, align 8
  store double %1, ptr %4, align 8
  %7 = load ptr, ptr %3, align 8
  call void @_ZN6casadi17SerializingStream8decorateEc(ptr noundef nonnull align 8 dereferenceable(73) %7, i8 noundef signext 100)
  store ptr %4, ptr %5, align 8
  store i32 0, ptr %6, align 4
  br label %8

8:                                                ; preds = %17, %2
  %9 = load i32, ptr %6, align 4
  %10 = icmp slt i32 %9, 8
  br i1 %10, label %11, label %20

11:                                               ; preds = %8
  %12 = load ptr, ptr %5, align 8
  %13 = load i32, ptr %6, align 4
  %14 = sext i32 %13 to i64
  %15 = getelementptr inbounds i8, ptr %12, i64 %14
  %16 = load i8, ptr %15, align 1
  call void @_ZN6casadi17SerializingStream4packEc(ptr noundef nonnull align 8 dereferenceable(73) %7, i8 noundef signext %16)
  br label %17

17:                                               ; preds = %11
  %18 = load i32, ptr %6, align 4
  %19 = add nsw i32 %18, 1
  store i32 %19, ptr %6, align 4
  br label %8, !llvm.loop !16

20:                                               ; preds = %8
  ret void
}